target datalayout = "e-m:e-p270:32:32-p271:32:32-p272:64:64-i64:64-i128:128-f80:128-n8:16:32:64-S128"
target triple = "x86_64-unknown-linux-gnu"

%struct.QTailQLink = type { ptr, ptr }
%struct.CPUAddressSpace = type { ptr, ptr, ptr, %struct.MemoryListener }
%struct.MemoryListener = type { ptr, ptr, ptr, ptr, ptr, ptr, ptr, ptr, ptr, ptr, ptr, ptr, ptr, ptr, ptr, ptr, ptr, i32, ptr, ptr, %union.anon.12, %union.anon.13 }
%union.anon.12 = type { %struct.QTailQLink }
%union.anon.13 = type { %struct.QTailQLink }
%union.run_on_cpu_data = type { i64 }

@replay_mode = external global i32, align 4

; Function Attrs: nounwind sspstrong uwtable
define internal void @tcg_log_global_after_sync(ptr noundef %listener) #0 {
entry:
  %listener.addr = alloca ptr, align 8
  %cpuas = alloca ptr, align 8
  %__mptr = alloca ptr, align 8
  %tmp = alloca ptr, align 8
  %.compoundliteral = alloca %union.run_on_cpu_data, align 8
  store ptr %listener, ptr %listener.addr, align 8
  %0 = load i32, ptr @replay_mode, align 4
  %cmp = icmp eq i32 %0, 0
  br i1 %cmp, label %if.then, label %if.end

if.then:                                          ; preds = %entry
  %1 = load ptr, ptr %listener.addr, align 8
  store ptr %1, ptr %__mptr, align 8
  %2 = load ptr, ptr %__mptr, align 8
  %add.ptr = getelementptr i8, ptr %2, i64 -24
  store ptr %add.ptr, ptr %tmp, align 8
  %3 = load ptr, ptr %tmp, align 8
  store ptr %3, ptr %cpuas, align 8
  %4 = load ptr, ptr %cpuas, align 8
  %cpu = getelementptr inbounds %struct.CPUAddressSpace, ptr %4, i32 0, i32 0
  %5 = load ptr, ptr %cpu, align 8
  store ptr null, ptr %.compoundliteral, align 8
  %coerce.dive = getelementptr inbounds %union.run_on_cpu_data, ptr %.compoundliteral, i32 0, i32 0
  %6 = load i64, ptr %coerce.dive, align 8
  call void @run_on_cpu(ptr noundef %5, ptr noundef @do_nothing, i64 %6)
  br label %if.end

if.end:                                           ; preds = %if.then, %entry
  ret void
}