; Function Attrs: nounwind sspstrong uwtable
define internal void @tcg_log_global_after_sync(ptr noundef readonly captures(none) %listener) #0 {
entry:
  %0 = load i32, ptr @replay_mode, align 4
  %cmp = icmp eq i32 %0, 0
  br i1 %cmp, label %if.then, label %if.end

if.then:                                          ; preds = %entry
  %add.ptr = getelementptr i8, ptr %listener, i64 -24
  %1 = load ptr, ptr %add.ptr, align 8
  tail call void @run_on_cpu(ptr noundef %1, ptr noundef nonnull @do_nothing, i64 0) #28
  br label %if.end

if.end:                                           ; preds = %if.then, %entry
  ret void
}